target datalayout = "e-m:e-p270:32:32-p271:32:32-p272:64:64-i64:64-i128:128-f80:128-n8:16:32:64-S128"
target triple = "x86_64-pc-linux-gnu"

%struct.H5O_pline_t = type { %struct.H5O_shared_t, i32, i64, i64, ptr }
%struct.H5O_shared_t = type { i32, ptr, i32, %union.anon.1 }
%union.anon.1 = type { %struct.H5O_mesg_loc_t }
%struct.H5O_mesg_loc_t = type { i32, i64 }
%struct.H5Z_filter_info_t = type { i32, i32, [12 x i8], ptr, i64, [4 x i32], ptr }

; Function Attrs: nounwind uwtable
define i32 @H5Z_filter_in_pline(ptr noundef %0, i32 noundef %1) #0 {
  %3 = alloca ptr, align 8
  %4 = alloca i32, align 4
  %5 = alloca i64, align 8
  %6 = alloca i32, align 4
  store ptr %0, ptr %3, align 8
  store i32 %1, ptr %4, align 4
  store i32 1, ptr %6, align 4
  store i64 0, ptr %5, align 8
  br label %7

7:                                                ; preds = %25, %2
  %8 = load i64, ptr %5, align 8
  %9 = load ptr, ptr %3, align 8
  %10 = getelementptr inbounds %struct.H5O_pline_t, ptr %9, i32 0, i32 3
  %11 = load i64, ptr %10, align 8
  %12 = icmp ult i64 %8, %11
  br i1 %12, label %13, label %28

13:                                               ; preds = %7
  %14 = load ptr, ptr %3, align 8
  %15 = getelementptr inbounds %struct.H5O_pline_t, ptr %14, i32 0, i32 4
  %16 = load ptr, ptr %15, align 8
  %17 = load i64, ptr %5, align 8
  %18 = getelementptr inbounds %struct.H5Z_filter_info_t, ptr %16, i64 %17
  %19 = getelementptr inbounds %struct.H5Z_filter_info_t, ptr %18, i32 0, i32 0
  %20 = load i32, ptr %19, align 8
  %21 = load i32, ptr %4, align 4
  %22 = icmp eq i32 %20, %21
  br i1 %22, label %23, label %24

23:                                               ; preds = %13
  br label %28

24:                                               ; preds = %13
  br label %25

25:                                               ; preds = %24
  %26 = load i64, ptr %5, align 8
  %27 = add i64 %26, 1
  store i64 %27, ptr %5, align 8
  br label %7

28:                                               ; preds = %23, %7
  %29 = load i64, ptr %5, align 8
  %30 = load ptr, ptr %3, align 8
  %31 = getelementptr inbounds %struct.H5O_pline_t, ptr %30, i32 0, i32 3
  %32 = load i64, ptr %31, align 8
  %33 = icmp uge i64 %29, %32
  br i1 %33, label %34, label %35

34:                                               ; preds = %28
  store i32 0, ptr %6, align 4
  br label %35

35:                                               ; preds = %34, %28
  %36 = load i32, ptr %6, align 4
  ret i32 %36
}